Certificate:
    Data:
        Version: 3 (0x2)
        Serial Number: 1 (0x1)
        Signature Algorithm: sha1WithRSAEncryption
        Issuer: C=BA, ST=RS, L=Banja Luka, O=Elektrotehnicki fakultet, OU=ETF, CN=rootCA
        Validity
            Not Before: Apr 21 18:54:38 2024 GMT
            Not After : Apr 21 18:54:38 2025 GMT
        Subject: C=BA, ST=RS, O=Elektrotehnicki fakultet, OU=ETF, CN=Stefan
        Subject Public Key Info:
            Public Key Algorithm: rsaEncryption
                Public-Key: (4096 bit)
                Modulus:
                    00:9a:d8:12:0d:12:12:ed:69:74:f6:d1:9c:e6:1d:
                    ca:7c:db:8d:19:b3:b1:b9:fa:52:d9:5a:12:1a:20:
                    d1:4a:2d:67:9a:4b:bf:b8:a1:73:ef:81:a0:bf:73:
                    94:cd:ca:0a:ae:c0:f2:73:99:8f:34:ba:18:37:0d:
                    df:a7:f9:18:b3:e2:f1:f8:ac:90:24:88:b3:00:8b:
                    e2:95:45:fc:b3:ec:df:21:41:20:3c:5a:03:12:f7:
                    33:69:c8:86:d9:8b:e1:fe:0c:5d:03:25:39:6e:44:
                    f3:c6:3e:b5:63:64:1b:b1:87:77:b5:ac:2c:23:a3:
                    9c:dc:09:80:66:d6:95:69:0d:51:8d:38:e6:5e:4d:
                    9c:13:c5:38:0d:7c:a2:a4:52:7c:8b:15:cc:df:62:
                    db:b7:8c:0f:98:96:19:22:85:ba:74:bb:fd:33:d2:
                    de:df:56:b1:ef:a9:6c:18:86:6c:ba:bd:56:88:b8:
                    b4:5f:94:00:45:f2:ec:e1:02:b1:b9:07:4d:22:08:
                    38:2a:50:5c:7e:39:7a:b3:6f:66:86:34:60:d6:63:
                    08:a7:a7:d1:89:9a:8a:53:f5:16:02:33:38:20:8a:
                    06:a1:4b:e1:dd:1c:bc:bc:c0:ea:ee:30:69:f3:97:
                    db:18:ca:fe:57:6e:1e:f6:f4:14:75:1a:31:00:f9:
                    7f:19:bd:2a:4f:8b:07:30:58:03:9d:1e:f6:32:fd:
                    3b:53:84:f9:80:98:0a:59:10:3a:43:1a:fe:a7:50:
                    c0:25:18:7d:b3:1f:bb:c4:59:23:1b:d0:ed:55:c5:
                    d3:d4:ee:cf:a3:34:d7:16:32:31:e4:73:c3:fa:08:
                    42:62:5f:34:c9:0b:59:80:24:5c:b8:0d:0a:20:81:
                    ec:f0:2a:ed:51:f5:5c:86:05:35:5d:75:b3:60:79:
                    3b:12:54:1c:0b:4f:c8:23:af:06:89:69:4b:0b:03:
                    fd:13:93:cc:8f:89:bc:ae:ed:34:f4:0c:51:f3:d2:
                    2e:1d:57:ad:e7:7b:31:a1:7e:4c:3e:00:ac:95:31:
                    39:83:ae:13:0a:a2:34:cc:32:5c:ac:d0:35:56:f8:
                    13:fa:a4:37:49:20:be:88:e6:46:8c:9c:bb:9a:53:
                    ed:22:75:19:7d:f0:09:57:1f:b4:28:f6:75:82:c3:
                    d4:f9:39:ad:72:5c:72:45:c3:b5:b0:38:c9:e6:e0:
                    89:de:24:b4:ec:dc:b3:6d:a9:e5:1c:ed:8f:3b:0f:
                    8c:5c:dd:ed:7f:c8:00:80:5d:83:1c:be:88:31:2b:
                    f1:8f:47:48:fc:5e:f5:c5:9d:69:50:ce:d6:eb:aa:
                    36:c0:98:7c:38:b9:99:14:b4:d0:ee:0f:5b:1b:1a:
                    3b:cf:d5
                Exponent: 65537 (0x10001)
        X509v3 extensions:
            X509v3 Basic Constraints: 
                CA:FALSE
            X509v3 Key Usage: 
                Digital Signature
            X509v3 Extended Key Usage: 
                TLS Web Client Authentication, TLS Web Server Authentication
            Netscape Comment: 
                OpenSSL Generated Certificate
            X509v3 Subject Key Identifier: 
                E7:D5:C7:77:F6:04:78:CC:C7:12:82:53:71:5A:E9:97:34:23:B8:8B
            X509v3 Authority Key Identifier: 
                7B:DF:CA:7D:60:B1:E5:36:79:82:DD:D2:61:0D:F5:43:9D:EC:37:59
            X509v3 CRL Distribution Points: 
                Full Name:
                  URI:http://192.168.21.89/rootcrl.pem
    Signature Algorithm: sha1WithRSAEncryption
    Signature Value:
        8f:b4:e1:1f:e5:29:76:96:82:d9:8e:cd:84:50:cb:9a:c5:62:
        df:33:5c:66:27:b7:28:42:8b:79:08:86:73:82:f1:de:a2:dc:
        96:7f:fb:51:42:dc:d6:49:fb:a7:d6:5f:57:85:cc:1a:56:f8:
        0c:26:0d:60:c6:1d:91:3b:72:c4:47:80:3e:ac:29:26:da:12:
        5f:77:63:f8:76:29:57:ba:b7:04:fc:d9:00:ea:96:51:af:79:
        42:c2:2f:81:7e:b5:0f:45:47:55:d1:1f:a4:db:5e:31:72:9e:
        35:bf:1e:40:1f:03:65:45:3d:7e:6c:15:79:d3:4f:e5:08:9e:
        3d:7b:55:9e:85:3a:f3:65:45:11:ac:ff:e0:a5:4d:aa:24:3c:
        ea:4e:0e:8c:96:d7:a9:14:cb:ca:8d:b0:31:87:ec:b8:19:f5:
        e9:c1:e6:ae:36:a8:c6:64:5c:e8:d4:d7:b6:8a:14:ed:30:ac:
        be:79:b3:ea:f1:31:74:0c:31:10:53:15:56:b2:9c:88:9c:f9:
        6c:cb:07:f4:13:4d:fe:ca:40:ac:f8:ee:68:9e:b3:dd:e0:47:
        b4:51:80:49:e4:0b:0f:bc:51:5c:11:1a:54:8b:15:a0:0e:e1:
        2d:b3:bc:93:3b:3d:89:65:bf:4b:5a:83:c9:37:84:1a:d8:be:
        04:d8:3b:c1
-----BEGIN CERTIFICATE-----
MIIFJDCCBAygAwIBAgIBATANBgkqhkiG9w0BAQUFADBxMQswCQYDVQQGEwJCQTEL
MAkGA1UECBMCUlMxEzARBgNVBAcTCkJhbmphIEx1a2ExITAfBgNVBAoTGEVsZWt0
cm90ZWhuaWNraSBmYWt1bHRldDEMMAoGA1UECxMDRVRGMQ8wDQYDVQQDEwZyb290
Q0EwHhcNMjQwNDIxMTg1NDM4WhcNMjUwNDIxMTg1NDM4WjBcMQswCQYDVQQGEwJC
QTELMAkGA1UECBMCUlMxITAfBgNVBAoTGEVsZWt0cm90ZWhuaWNraSBmYWt1bHRl
dDEMMAoGA1UECxMDRVRGMQ8wDQYDVQQDEwZTdGVmYW4wggIiMA0GCSqGSIb3DQEB
AQUAA4ICDwAwggIKAoICAQCa2BINEhLtaXT20ZzmHcp8240Zs7G5+lLZWhIaINFK
LWeaS7+4oXPvgaC/c5TNygquwPJzmY80uhg3Dd+n+Riz4vH4rJAkiLMAi+KVRfyz
7N8hQSA8WgMS9zNpyIbZi+H+DF0DJTluRPPGPrVjZBuxh3e1rCwjo5zcCYBm1pVp
DVGNOOZeTZwTxTgNfKKkUnyLFczfYtu3jA+Ylhkihbp0u/0z0t7fVrHvqWwYhmy6
vVaIuLRflABF8uzhArG5B00iCDgqUFx+OXqzb2aGNGDWYwinp9GJmopT9RYCMzgg
igahS+HdHLy8wOruMGnzl9sYyv5Xbh729BR1GjEA+X8ZvSpPiwcwWAOdHvYy/TtT
hPmAmApZEDpDGv6nUMAlGH2zH7vEWSMb0O1VxdPU7s+jNNcWMjHkc8P6CEJiXzTJ
C1mAJFy4DQoggezwKu1R9VyGBTVddbNgeTsSVBwLT8gjrwaJaUsLA/0Tk8yPibyu
7TT0DFHz0i4dV63nezGhfkw+AKyVMTmDrhMKojTMMlys0DVW+BP6pDdJIL6I5kaM
nLuaU+0idRl98AlXH7Qo9nWCw9T5Oa1yXHJFw7WwOMnm4IneJLTs3LNtqeUc7Y87
D4xc3e1/yACAXYMcvogxK/GPR0j8XvXFnWlQztbrqjbAmHw4uZkUtNDuD1sbGjvP
1QIDAQABo4HbMIHYMAkGA1UdEwQCMAAwCwYDVR0PBAQDAgeAMB0GA1UdJQQWMBQG
CCsGAQUFBwMCBggrBgEFBQcDATAsBglghkgBhvhCAQ0EHxYdT3BlblNTTCBHZW5l
cmF0ZWQgQ2VydGlmaWNhdGUwHQYDVR0OBBYEFOfVx3f2BHjMxxKCU3Fa6Zc0I7iL
MB8GA1UdIwQYMBaAFHvfyn1gseU2eYLd0mEN9UOd7DdZMDEGA1UdHwQqMCgwJqAk
oCKGIGh0dHA6Ly8xOTIuMTY4LjIxLjg5L3Jvb3RjcmwucGVtMA0GCSqGSIb3DQEB
BQUAA4IBAQCPtOEf5Sl2loLZjs2EUMuaxWLfM1xmJ7coQot5CIZzgvHeotyWf/tR
QtzWSfun1l9XhcwaVvgMJg1gxh2RO3LER4A+rCkm2hJfd2P4dilXurcE/NkA6pZR
r3lCwi+BfrUPRUdV0R+k214xcp41vx5AHwNlRT1+bBV500/lCJ49e1WehTrzZUUR
rP/gpU2qJDzqTg6MltepFMvKjbAxh+y4GfXpweauNqjGZFzo1Ne2ihTtMKy+ebPq
8TF0DDEQUxVWspyInPlsywf0E03+ykCs+O5onrPd4Ee0UYBJ5AsPvFFcERpUixWg
DuEts7yTOz2JZb9LWoPJN4Qa2L4E2DvB
-----END CERTIFICATE-----
