Certificate:
    Data:
        Version: 3 (0x2)
        Serial Number: 2 (0x2)
        Signature Algorithm: sha1WithRSAEncryption
        Issuer: C=BA, ST=RS, L=Banja Luka, O=Elektrotehnicki fakultet, OU=ETF, CN=rootCA
        Validity
            Not Before: Apr 21 21:51:23 2024 GMT
            Not After : Apr 21 21:51:23 2025 GMT
        Subject: C=BA, ST=RS, O=Elektrotehnicki fakultet, OU=ETF, CN=Marko
        Subject Public Key Info:
            Public Key Algorithm: rsaEncryption
                Public-Key: (4096 bit)
                Modulus:
                    00:a8:93:d1:a6:22:43:a8:21:f9:83:1d:45:59:d8:
                    b8:ea:29:c0:f5:d4:f3:56:79:a1:dd:63:99:2d:6e:
                    16:64:96:40:55:56:dc:e3:65:47:c0:c1:fd:6c:91:
                    a8:f6:d0:73:2c:dc:16:5a:72:60:14:49:fe:26:b2:
                    92:0c:0e:e1:20:76:5d:1a:47:0f:8d:e0:f6:b4:63:
                    0c:98:97:22:9e:35:22:7b:f5:f9:b5:1c:05:41:11:
                    e6:0f:b0:d0:34:2d:4f:55:e3:08:0f:74:c3:47:1d:
                    36:72:e1:f0:b6:aa:a1:67:06:e8:4a:90:28:5f:00:
                    08:6e:40:17:62:c1:02:8f:f0:80:14:79:37:8f:63:
                    43:68:9a:5a:86:42:d9:25:d3:fb:0b:fe:31:13:08:
                    e2:71:49:72:1f:c6:04:b3:10:49:4f:5a:9f:16:38:
                    85:6c:72:d0:eb:8b:c3:35:f5:92:be:73:8d:22:4f:
                    e0:e9:75:cc:99:5a:63:a0:3c:29:c9:51:49:47:dd:
                    1b:e5:62:45:ce:f6:62:99:65:13:94:ec:41:53:5c:
                    58:d5:31:42:df:ca:00:25:b7:42:70:6c:e6:56:83:
                    b0:d9:a7:e5:db:74:b9:08:1b:28:04:92:b0:d1:4a:
                    94:e6:f6:05:47:a1:cb:1c:d3:fa:f1:8f:b0:a8:ce:
                    61:4b:3e:4a:a8:30:c2:47:e4:e7:db:a4:bc:e2:71:
                    5b:b1:db:f1:9c:6c:b7:e5:d5:8d:75:ca:c9:86:75:
                    d0:c0:ee:7d:b1:62:bb:61:61:83:7b:a1:f2:ef:b9:
                    ac:26:c6:df:b3:6d:30:3c:64:52:f5:c3:68:aa:79:
                    ee:53:87:ca:2e:25:03:91:f2:50:90:17:6f:21:4a:
                    00:16:a2:39:8a:bf:b0:04:bc:b9:bc:5f:26:a1:f6:
                    62:d7:c1:3b:8d:09:88:ce:75:cb:03:61:cb:f6:fa:
                    bf:21:b6:9b:56:5d:c1:aa:f9:4b:a1:9c:7c:15:69:
                    67:5f:c1:c0:51:66:1c:f5:11:c4:4f:56:11:f7:8e:
                    4d:98:0e:c4:ae:7f:34:e6:15:85:cc:65:7c:ea:44:
                    7f:3d:fb:c7:cc:96:8e:a1:b9:e6:91:9c:45:a6:1b:
                    0b:de:38:20:cf:fa:7a:6c:99:77:29:6e:a6:f3:13:
                    2d:dc:22:90:b5:09:0f:99:cb:e2:ca:1d:89:6a:0c:
                    95:01:9b:4e:21:77:c6:64:ba:9c:4f:37:92:14:7e:
                    3d:38:4b:4d:f9:bc:54:d9:e0:e1:e3:7f:2d:e3:c8:
                    9f:bb:a9:3d:de:88:1f:1c:54:5a:7c:bb:b8:4a:ad:
                    ec:b2:21:a9:ba:01:d4:07:2d:89:11:5b:8f:76:6d:
                    e0:6d:c5
                Exponent: 65537 (0x10001)
        X509v3 extensions:
            X509v3 Basic Constraints: 
                CA:FALSE
            X509v3 Key Usage: 
                Digital Signature
            X509v3 Extended Key Usage: 
                TLS Web Client Authentication, TLS Web Server Authentication
            Netscape Comment: 
                OpenSSL Generated Certificate
            X509v3 Subject Key Identifier: 
                D1:46:84:67:EB:40:55:20:6A:F2:B6:C1:CF:50:2A:63:1E:01:41:57
            X509v3 Authority Key Identifier: 
                7B:DF:CA:7D:60:B1:E5:36:79:82:DD:D2:61:0D:F5:43:9D:EC:37:59
            X509v3 CRL Distribution Points: 
                Full Name:
                  URI:http://192.168.21.89/rootcrl.pem
    Signature Algorithm: sha1WithRSAEncryption
    Signature Value:
        0b:0b:ac:f9:a5:64:26:ba:a2:3c:de:fe:b7:be:95:00:29:3a:
        07:eb:0c:82:20:5c:28:57:28:d5:c6:33:36:2a:6a:34:65:35:
        2e:41:48:f4:fc:09:a5:d9:74:6d:52:19:10:50:88:a0:79:91:
        f8:1e:d4:d8:d9:e7:61:7d:1d:24:8b:44:7d:06:c2:83:77:18:
        ca:c6:f0:74:39:2d:67:d1:12:7c:ae:1d:d4:2e:47:e6:2a:15:
        03:84:73:3b:c5:fd:e0:35:cf:15:52:53:7a:3d:f8:cc:8a:f6:
        49:7a:79:b6:7a:fe:ef:aa:ca:22:72:7f:cd:59:87:d8:40:6f:
        34:f0:31:f0:9d:f0:7f:e2:46:6d:68:82:d4:be:46:8c:64:cb:
        b2:0d:ee:09:82:d3:09:6d:ec:d2:63:0b:2c:eb:8e:f6:e0:7e:
        bf:18:53:90:ce:90:01:a3:c5:32:55:88:e0:eb:fc:88:d4:92:
        ab:8d:e0:c9:ea:fa:c2:6b:53:b0:79:e9:b0:b4:fc:65:e0:34:
        53:cd:27:e6:50:d9:09:ff:be:e1:fa:5b:ec:11:31:5f:bf:eb:
        40:d9:c3:45:de:7f:ba:74:d5:1a:01:0c:bf:32:b8:6e:d1:87:
        d8:f1:d4:81:2c:ae:30:ce:29:31:74:6e:9b:b2:4c:e5:97:5f:
        31:44:ff:48
-----BEGIN CERTIFICATE-----
MIIFIzCCBAugAwIBAgIBAjANBgkqhkiG9w0BAQUFADBxMQswCQYDVQQGEwJCQTEL
MAkGA1UECBMCUlMxEzARBgNVBAcTCkJhbmphIEx1a2ExITAfBgNVBAoTGEVsZWt0
cm90ZWhuaWNraSBmYWt1bHRldDEMMAoGA1UECxMDRVRGMQ8wDQYDVQQDEwZyb290
Q0EwHhcNMjQwNDIxMjE1MTIzWhcNMjUwNDIxMjE1MTIzWjBbMQswCQYDVQQGEwJC
QTELMAkGA1UECBMCUlMxITAfBgNVBAoTGEVsZWt0cm90ZWhuaWNraSBmYWt1bHRl
dDEMMAoGA1UECxMDRVRGMQ4wDAYDVQQDEwVNYXJrbzCCAiIwDQYJKoZIhvcNAQEB
BQADggIPADCCAgoCggIBAKiT0aYiQ6gh+YMdRVnYuOopwPXU81Z5od1jmS1uFmSW
QFVW3ONlR8DB/WyRqPbQcyzcFlpyYBRJ/iaykgwO4SB2XRpHD43g9rRjDJiXIp41
Inv1+bUcBUER5g+w0DQtT1XjCA90w0cdNnLh8LaqoWcG6EqQKF8ACG5AF2LBAo/w
gBR5N49jQ2iaWoZC2SXT+wv+MRMI4nFJch/GBLMQSU9anxY4hWxy0OuLwzX1kr5z
jSJP4Ol1zJlaY6A8KclRSUfdG+ViRc72YpllE5TsQVNcWNUxQt/KACW3QnBs5laD
sNmn5dt0uQgbKASSsNFKlOb2BUehyxzT+vGPsKjOYUs+Sqgwwkfk59ukvOJxW7Hb
8Zxst+XVjXXKyYZ10MDufbFiu2Fhg3uh8u+5rCbG37NtMDxkUvXDaKp57lOHyi4l
A5HyUJAXbyFKABaiOYq/sAS8ubxfJqH2YtfBO40JiM51ywNhy/b6vyG2m1Zdwar5
S6GcfBVpZ1/BwFFmHPURxE9WEfeOTZgOxK5/NOYVhcxlfOpEfz37x8yWjqG55pGc
RaYbC944IM/6emyZdylupvMTLdwikLUJD5nL4sodiWoMlQGbTiF3xmS6nE83khR+
PThLTfm8VNng4eN/LePIn7upPd6IHxxUWny7uEqt7LIhqboB1ActiRFbj3Zt4G3F
AgMBAAGjgdswgdgwCQYDVR0TBAIwADALBgNVHQ8EBAMCB4AwHQYDVR0lBBYwFAYI
KwYBBQUHAwIGCCsGAQUFBwMBMCwGCWCGSAGG+EIBDQQfFh1PcGVuU1NMIEdlbmVy
YXRlZCBDZXJ0aWZpY2F0ZTAdBgNVHQ4EFgQU0UaEZ+tAVSBq8rbBz1AqYx4BQVcw
HwYDVR0jBBgwFoAUe9/KfWCx5TZ5gt3SYQ31Q53sN1kwMQYDVR0fBCowKDAmoCSg
IoYgaHR0cDovLzE5Mi4xNjguMjEuODkvcm9vdGNybC5wZW0wDQYJKoZIhvcNAQEF
BQADggEBAAsLrPmlZCa6ojze/re+lQApOgfrDIIgXChXKNXGMzYqajRlNS5BSPT8
CaXZdG1SGRBQiKB5kfge1NjZ52F9HSSLRH0GwoN3GMrG8HQ5LWfREnyuHdQuR+Yq
FQOEczvF/eA1zxVSU3o9+MyK9kl6ebZ6/u+qyiJyf81Zh9hAbzTwMfCd8H/iRm1o
gtS+Roxky7IN7gmC0wlt7NJjCyzrjvbgfr8YU5DOkAGjxTJViODr/IjUkquN4Mnq
+sJrU7B56bC0/GXgNFPNJ+ZQ2Qn/vuH6W+wRMV+/60DZw0Xef7p01RoBDL8yuG7R
h9jx1IEsrjDOKTF0bpuyTOWXXzFE/0g=
-----END CERTIFICATE-----
